target datalayout = "e-m:e-p270:32:32-p271:32:32-p272:64:64-i64:64-i128:128-f80:128-n8:16:32:64-S128"
target triple = "x86_64-unknown-linux-gnu"

%class.btMatrix3x3 = type { [3 x %class.btVector3] }
%class.btVector3 = type { [4 x float] }
%class.btDeformableContactConstraint = type { ptr, i8, ptr, %class.btVector3 }
%"struct.btSoftBody::Node" = type <{ %"struct.btSoftBody::Feature", %class.btVector3, %class.btVector3, %class.btVector3, %class.btVector3, %class.btVector3, %class.btVector3, float, float, ptr, i32, i8, [3 x i8], i32, %class.btVector3, %class.btMatrix3x3, %class.btMatrix3x3, [4 x i8] }>
%"struct.btSoftBody::Feature" = type { %"struct.btSoftBody::Element", ptr }
%"struct.btSoftBody::Element" = type { ptr }
%class.btDeformableRigidContactConstraint = type { %class.btDeformableContactConstraint, %class.btVector3, %class.btVector3, float, float, i8, ptr }
%"class.btSoftBody::DeformableRigidContact" = type { %"struct.btSoftBody::sCti", %class.btMatrix3x3, %class.btVector3, float, float, float, %class.btMatrix3x3, [4 x i8], %struct.btMultiBodyJacobianData, %struct.btMultiBodyJacobianData, %struct.btMultiBodyJacobianData, %class.btVector3, %class.btVector3 }
%"struct.btSoftBody::sCti" = type <{ ptr, %class.btVector3, %class.btVector3, float, %class.btVector3, [4 x i8] }>
%struct.btMultiBodyJacobianData = type <{ %class.btAlignedObjectArray.12, %class.btAlignedObjectArray.12, %class.btAlignedObjectArray.12, %class.btAlignedObjectArray.12, %class.btAlignedObjectArray.8, %class.btAlignedObjectArray.112, ptr, i32, [4 x i8] }>
%class.btAlignedObjectArray.12 = type <{ %class.btAlignedAllocator.13, [3 x i8], i32, i32, [4 x i8], ptr, i8, [7 x i8] }>
%class.btAlignedAllocator.13 = type { i8 }
%class.btAlignedObjectArray.8 = type <{ %class.btAlignedAllocator.9, [3 x i8], i32, i32, [4 x i8], ptr, i8, [7 x i8] }>
%class.btAlignedAllocator.9 = type { i8 }
%class.btAlignedObjectArray.112 = type <{ %class.btAlignedAllocator.113, [3 x i8], i32, i32, [4 x i8], ptr, i8, [7 x i8] }>
%class.btAlignedAllocator.113 = type { i8 }
%class.btReducedDeformableRigidContactConstraint.base = type <{ %class.btDeformableRigidContactConstraint, i8, i8, [2 x i8], i32, i32, [4 x i8], ptr, ptr, float, float, float, float, float, float, float, float, float, float, float, float, float, float, float, float, float, %class.btVector3, %class.btVector3, %class.btVector3, %class.btVector3, %class.btVector3, %class.btVector3, %class.btMatrix3x3, %class.btVector3, %class.btVector3, %class.btVector3, %class.btVector3, %class.btVector3, %class.btVector3 }>
%class.btReducedDeformableFaceRigidContactConstraint = type <{ %class.btReducedDeformableRigidContactConstraint.base, [4 x i8], ptr, i8, [7 x i8] }>
%"class.btSoftBody::DeformableFaceRigidContact" = type { %"class.btSoftBody::DeformableRigidContact", ptr, %class.btVector3, %class.btVector3, %class.btVector3 }
%"struct.btSoftBody::Face" = type <{ %"struct.btSoftBody::Feature", [3 x ptr], %class.btVector3, float, [4 x i8], ptr, %class.btVector4, %class.btVector3, %class.btVector3, %class.btVector3, i32, [4 x i8] }>
%class.btVector4 = type { %class.btVector3 }

; Function Attrs: mustprogress nounwind uwtable
define linkonce_odr dso_local void @_ZN9btVector3C2ERKfS1_S1_(ptr noundef nonnull align 4 dereferenceable(16) %this, ptr noundef nonnull align 4 dereferenceable(4) %_x, ptr noundef nonnull align 4 dereferenceable(4) %_y, ptr noundef nonnull align 4 dereferenceable(4) %_z) unnamed_addr #1 comdat align 2 {
entry:
  %this.addr = alloca ptr, align 8
  %_x.addr = alloca ptr, align 8
  %_y.addr = alloca ptr, align 8
  %_z.addr = alloca ptr, align 8
  store ptr %this, ptr %this.addr, align 8
  store ptr %_x, ptr %_x.addr, align 8
  store ptr %_y, ptr %_y.addr, align 8
  store ptr %_z, ptr %_z.addr, align 8
  %this1 = load ptr, ptr %this.addr, align 8
  %0 = load ptr, ptr %_x.addr, align 8
  %1 = load float, ptr %0, align 4
  %m_floats = getelementptr inbounds %class.btVector3, ptr %this1, i32 0, i32 0
  %arrayidx = getelementptr inbounds [4 x float], ptr %m_floats, i64 0, i64 0
  store float %1, ptr %arrayidx, align 4
  %2 = load ptr, ptr %_y.addr, align 8
  %3 = load float, ptr %2, align 4
  %m_floats2 = getelementptr inbounds %class.btVector3, ptr %this1, i32 0, i32 0
  %arrayidx3 = getelementptr inbounds [4 x float], ptr %m_floats2, i64 0, i64 1
  store float %3, ptr %arrayidx3, align 4
  %4 = load ptr, ptr %_z.addr, align 8
  %5 = load float, ptr %4, align 4
  %m_floats4 = getelementptr inbounds %class.btVector3, ptr %this1, i32 0, i32 0
  %arrayidx5 = getelementptr inbounds [4 x float], ptr %m_floats4, i64 0, i64 2
  store float %5, ptr %arrayidx5, align 4
  %m_floats6 = getelementptr inbounds %class.btVector3, ptr %this1, i32 0, i32 0
  %arrayidx7 = getelementptr inbounds [4 x float], ptr %m_floats6, i64 0, i64 3
  store float 0.000000e+00, ptr %arrayidx7, align 4
  ret void
}

; Function Attrs: mustprogress uwtable
define linkonce_odr dso_local { <2 x float>, <2 x float> } @_ZplRK9btVector3S1_(ptr noundef nonnull align 4 dereferenceable(16) %v1, ptr noundef nonnull align 4 dereferenceable(16) %v2) #6 comdat {
entry:
  %retval = alloca %class.btVector3, align 4
  %v1.addr = alloca ptr, align 8
  %v2.addr = alloca ptr, align 8
  %ref.tmp = alloca float, align 4
  %ref.tmp3 = alloca float, align 4
  %ref.tmp9 = alloca float, align 4
  store ptr %v1, ptr %v1.addr, align 8
  store ptr %v2, ptr %v2.addr, align 8
  %0 = load ptr, ptr %v1.addr, align 8
  %m_floats = getelementptr inbounds %class.btVector3, ptr %0, i32 0, i32 0
  %arrayidx = getelementptr inbounds [4 x float], ptr %m_floats, i64 0, i64 0
  %1 = load float, ptr %arrayidx, align 4
  %2 = load ptr, ptr %v2.addr, align 8
  %m_floats1 = getelementptr inbounds %class.btVector3, ptr %2, i32 0, i32 0
  %arrayidx2 = getelementptr inbounds [4 x float], ptr %m_floats1, i64 0, i64 0
  %3 = load float, ptr %arrayidx2, align 4
  %add = fadd float %1, %3
  store float %add, ptr %ref.tmp, align 4
  %4 = load ptr, ptr %v1.addr, align 8
  %m_floats4 = getelementptr inbounds %class.btVector3, ptr %4, i32 0, i32 0
  %arrayidx5 = getelementptr inbounds [4 x float], ptr %m_floats4, i64 0, i64 1
  %5 = load float, ptr %arrayidx5, align 4
  %6 = load ptr, ptr %v2.addr, align 8
  %m_floats6 = getelementptr inbounds %class.btVector3, ptr %6, i32 0, i32 0
  %arrayidx7 = getelementptr inbounds [4 x float], ptr %m_floats6, i64 0, i64 1
  %7 = load float, ptr %arrayidx7, align 4
  %add8 = fadd float %5, %7
  store float %add8, ptr %ref.tmp3, align 4
  %8 = load ptr, ptr %v1.addr, align 8
  %m_floats10 = getelementptr inbounds %class.btVector3, ptr %8, i32 0, i32 0
  %arrayidx11 = getelementptr inbounds [4 x float], ptr %m_floats10, i64 0, i64 2
  %9 = load float, ptr %arrayidx11, align 4
  %10 = load ptr, ptr %v2.addr, align 8
  %m_floats12 = getelementptr inbounds %class.btVector3, ptr %10, i32 0, i32 0
  %arrayidx13 = getelementptr inbounds [4 x float], ptr %m_floats12, i64 0, i64 2
  %11 = load float, ptr %arrayidx13, align 4
  %add14 = fadd float %9, %11
  store float %add14, ptr %ref.tmp9, align 4
  call void @_ZN9btVector3C2ERKfS1_S1_(ptr noundef nonnull align 4 dereferenceable(16) %retval, ptr noundef nonnull align 4 dereferenceable(4) %ref.tmp, ptr noundef nonnull align 4 dereferenceable(4) %ref.tmp3, ptr noundef nonnull align 4 dereferenceable(4) %ref.tmp9)
  %coerce.dive = getelementptr inbounds %class.btVector3, ptr %retval, i32 0, i32 0
  %12 = load { <2 x float>, <2 x float> }, ptr %coerce.dive, align 4
  ret { <2 x float>, <2 x float> } %12
}

; Function Attrs: mustprogress uwtable
define linkonce_odr dso_local { <2 x float>, <2 x float> } @_ZmlRK9btVector3RKf(ptr noundef nonnull align 4 dereferenceable(16) %v, ptr noundef nonnull align 4 dereferenceable(4) %s) #6 comdat {
entry:
  %retval = alloca %class.btVector3, align 4
  %v.addr = alloca ptr, align 8
  %s.addr = alloca ptr, align 8
  %ref.tmp = alloca float, align 4
  %ref.tmp1 = alloca float, align 4
  %ref.tmp5 = alloca float, align 4
  store ptr %v, ptr %v.addr, align 8
  store ptr %s, ptr %s.addr, align 8
  %0 = load ptr, ptr %v.addr, align 8
  %m_floats = getelementptr inbounds %class.btVector3, ptr %0, i32 0, i32 0
  %arrayidx = getelementptr inbounds [4 x float], ptr %m_floats, i64 0, i64 0
  %1 = load float, ptr %arrayidx, align 4
  %2 = load ptr, ptr %s.addr, align 8
  %3 = load float, ptr %2, align 4
  %mul = fmul float %1, %3
  store float %mul, ptr %ref.tmp, align 4
  %4 = load ptr, ptr %v.addr, align 8
  %m_floats2 = getelementptr inbounds %class.btVector3, ptr %4, i32 0, i32 0
  %arrayidx3 = getelementptr inbounds [4 x float], ptr %m_floats2, i64 0, i64 1
  %5 = load float, ptr %arrayidx3, align 4
  %6 = load ptr, ptr %s.addr, align 8
  %7 = load float, ptr %6, align 4
  %mul4 = fmul float %5, %7
  store float %mul4, ptr %ref.tmp1, align 4
  %8 = load ptr, ptr %v.addr, align 8
  %m_floats6 = getelementptr inbounds %class.btVector3, ptr %8, i32 0, i32 0
  %arrayidx7 = getelementptr inbounds [4 x float], ptr %m_floats6, i64 0, i64 2
  %9 = load float, ptr %arrayidx7, align 4
  %10 = load ptr, ptr %s.addr, align 8
  %11 = load float, ptr %10, align 4
  %mul8 = fmul float %9, %11
  store float %mul8, ptr %ref.tmp5, align 4
  call void @_ZN9btVector3C2ERKfS1_S1_(ptr noundef nonnull align 4 dereferenceable(16) %retval, ptr noundef nonnull align 4 dereferenceable(4) %ref.tmp, ptr noundef nonnull align 4 dereferenceable(4) %ref.tmp1, ptr noundef nonnull align 4 dereferenceable(4) %ref.tmp5)
  %coerce.dive = getelementptr inbounds %class.btVector3, ptr %retval, i32 0, i32 0
  %12 = load { <2 x float>, <2 x float> }, ptr %coerce.dive, align 4
  ret { <2 x float>, <2 x float> } %12
}

; Function Attrs: mustprogress nounwind uwtable
define linkonce_odr dso_local noundef ptr @_ZNK9btVector3cvPKfEv(ptr noundef nonnull align 4 dereferenceable(16) %this) #1 comdat align 2 {
entry:
  %this.addr = alloca ptr, align 8
  store ptr %this, ptr %this.addr, align 8
  %this1 = load ptr, ptr %this.addr, align 8
  %m_floats = getelementptr inbounds %class.btVector3, ptr %this1, i32 0, i32 0
  %arrayidx = getelementptr inbounds [4 x float], ptr %m_floats, i64 0, i64 0
  ret ptr %arrayidx
}

; Function Attrs: mustprogress nounwind uwtable
define linkonce_odr dso_local noundef ptr @_ZNK45btReducedDeformableFaceRigidContactConstraint10getContactEv(ptr noundef nonnull align 8 dereferenceable(449) %this) #1 comdat align 2 {
entry:
  %this.addr = alloca ptr, align 8
  store ptr %this, ptr %this.addr, align 8
  %this1 = load ptr, ptr %this.addr, align 8
  %m_contact = getelementptr inbounds %class.btDeformableRigidContactConstraint, ptr %this1, i32 0, i32 6
  %0 = load ptr, ptr %m_contact, align 8
  ret ptr %0
}

; Function Attrs: mustprogress uwtable
define dso_local { <2 x float>, <2 x float> } @_ZNK45btReducedDeformableFaceRigidContactConstraint5getVbEv(ptr noundef nonnull align 8 dereferenceable(449) %this) unnamed_addr #5 align 2 {
entry:
  %retval = alloca %class.btVector3, align 4
  %this.addr = alloca ptr, align 8
  %contact = alloca ptr, align 8
  %ref.tmp = alloca %class.btVector3, align 4
  %ref.tmp2 = alloca %class.btVector3, align 4
  %ref.tmp6 = alloca %class.btVector3, align 4
  %ref.tmp18 = alloca %class.btVector3, align 4
  store ptr %this, ptr %this.addr, align 8
  %this1 = load ptr, ptr %this.addr, align 8
  %call = call noundef ptr @_ZNK45btReducedDeformableFaceRigidContactConstraint10getContactEv(ptr noundef nonnull align 8 dereferenceable(449) %this1)
  store ptr %call, ptr %contact, align 8
  %m_face = getelementptr inbounds %class.btReducedDeformableFaceRigidContactConstraint, ptr %this1, i32 0, i32 2
  %0 = load ptr, ptr %m_face, align 8
  %m_n = getelementptr inbounds %"struct.btSoftBody::Face", ptr %0, i32 0, i32 1
  %arrayidx = getelementptr inbounds [3 x ptr], ptr %m_n, i64 0, i64 0
  %1 = load ptr, ptr %arrayidx, align 8
  %m_v = getelementptr inbounds %"struct.btSoftBody::Node", ptr %1, i32 0, i32 3
  %2 = load ptr, ptr %contact, align 8
  %m_bary = getelementptr inbounds %"class.btSoftBody::DeformableFaceRigidContact", ptr %2, i32 0, i32 3
  %call3 = call noundef ptr @_ZNK9btVector3cvPKfEv(ptr noundef nonnull align 4 dereferenceable(16) %m_bary)
  %arrayidx4 = getelementptr inbounds float, ptr %call3, i64 0
  %call5 = call { <2 x float>, <2 x float> } @_ZmlRK9btVector3RKf(ptr noundef nonnull align 4 dereferenceable(16) %m_v, ptr noundef nonnull align 4 dereferenceable(4) %arrayidx4)
  %coerce.dive = getelementptr inbounds %class.btVector3, ptr %ref.tmp2, i32 0, i32 0
  %3 = getelementptr inbounds { <2 x float>, <2 x float> }, ptr %coerce.dive, i32 0, i32 0
  %4 = extractvalue { <2 x float>, <2 x float> } %call5, 0
  store <2 x float> %4, ptr %3, align 4
  %5 = getelementptr inbounds { <2 x float>, <2 x float> }, ptr %coerce.dive, i32 0, i32 1
  %6 = extractvalue { <2 x float>, <2 x float> } %call5, 1
  store <2 x float> %6, ptr %5, align 4
  %m_face7 = getelementptr inbounds %class.btReducedDeformableFaceRigidContactConstraint, ptr %this1, i32 0, i32 2
  %7 = load ptr, ptr %m_face7, align 8
  %m_n8 = getelementptr inbounds %"struct.btSoftBody::Face", ptr %7, i32 0, i32 1
  %arrayidx9 = getelementptr inbounds [3 x ptr], ptr %m_n8, i64 0, i64 1
  %8 = load ptr, ptr %arrayidx9, align 8
  %m_v10 = getelementptr inbounds %"struct.btSoftBody::Node", ptr %8, i32 0, i32 3
  %9 = load ptr, ptr %contact, align 8
  %m_bary11 = getelementptr inbounds %"class.btSoftBody::DeformableFaceRigidContact", ptr %9, i32 0, i32 3
  %call12 = call noundef ptr @_ZNK9btVector3cvPKfEv(ptr noundef nonnull align 4 dereferenceable(16) %m_bary11)
  %arrayidx13 = getelementptr inbounds float, ptr %call12, i64 1
  %call14 = call { <2 x float>, <2 x float> } @_ZmlRK9btVector3RKf(ptr noundef nonnull align 4 dereferenceable(16) %m_v10, ptr noundef nonnull align 4 dereferenceable(4) %arrayidx13)
  %coerce.dive15 = getelementptr inbounds %class.btVector3, ptr %ref.tmp6, i32 0, i32 0
  %10 = getelementptr inbounds { <2 x float>, <2 x float> }, ptr %coerce.dive15, i32 0, i32 0
  %11 = extractvalue { <2 x float>, <2 x float> } %call14, 0
  store <2 x float> %11, ptr %10, align 4
  %12 = getelementptr inbounds { <2 x float>, <2 x float> }, ptr %coerce.dive15, i32 0, i32 1
  %13 = extractvalue { <2 x float>, <2 x float> } %call14, 1
  store <2 x float> %13, ptr %12, align 4
  %call16 = call { <2 x float>, <2 x float> } @_ZplRK9btVector3S1_(ptr noundef nonnull align 4 dereferenceable(16) %ref.tmp2, ptr noundef nonnull align 4 dereferenceable(16) %ref.tmp6)
  %coerce.dive17 = getelementptr inbounds %class.btVector3, ptr %ref.tmp, i32 0, i32 0
  %14 = getelementptr inbounds { <2 x float>, <2 x float> }, ptr %coerce.dive17, i32 0, i32 0
  %15 = extractvalue { <2 x float>, <2 x float> } %call16, 0
  store <2 x float> %15, ptr %14, align 4
  %16 = getelementptr inbounds { <2 x float>, <2 x float> }, ptr %coerce.dive17, i32 0, i32 1
  %17 = extractvalue { <2 x float>, <2 x float> } %call16, 1
  store <2 x float> %17, ptr %16, align 4
  %m_face19 = getelementptr inbounds %class.btReducedDeformableFaceRigidContactConstraint, ptr %this1, i32 0, i32 2
  %18 = load ptr, ptr %m_face19, align 8
  %m_n20 = getelementptr inbounds %"struct.btSoftBody::Face", ptr %18, i32 0, i32 1
  %arrayidx21 = getelementptr inbounds [3 x ptr], ptr %m_n20, i64 0, i64 2
  %19 = load ptr, ptr %arrayidx21, align 8
  %m_v22 = getelementptr inbounds %"struct.btSoftBody::Node", ptr %19, i32 0, i32 3
  %20 = load ptr, ptr %contact, align 8
  %m_bary23 = getelementptr inbounds %"class.btSoftBody::DeformableFaceRigidContact", ptr %20, i32 0, i32 3
  %call24 = call noundef ptr @_ZNK9btVector3cvPKfEv(ptr noundef nonnull align 4 dereferenceable(16) %m_bary23)
  %arrayidx25 = getelementptr inbounds float, ptr %call24, i64 2
  %call26 = call { <2 x float>, <2 x float> } @_ZmlRK9btVector3RKf(ptr noundef nonnull align 4 dereferenceable(16) %m_v22, ptr noundef nonnull align 4 dereferenceable(4) %arrayidx25)
  %coerce.dive27 = getelementptr inbounds %class.btVector3, ptr %ref.tmp18, i32 0, i32 0
  %21 = getelementptr inbounds { <2 x float>, <2 x float> }, ptr %coerce.dive27, i32 0, i32 0
  %22 = extractvalue { <2 x float>, <2 x float> } %call26, 0
  store <2 x float> %22, ptr %21, align 4
  %23 = getelementptr inbounds { <2 x float>, <2 x float> }, ptr %coerce.dive27, i32 0, i32 1
  %24 = extractvalue { <2 x float>, <2 x float> } %call26, 1
  store <2 x float> %24, ptr %23, align 4
  %call28 = call { <2 x float>, <2 x float> } @_ZplRK9btVector3S1_(ptr noundef nonnull align 4 dereferenceable(16) %ref.tmp, ptr noundef nonnull align 4 dereferenceable(16) %ref.tmp18)
  %coerce.dive29 = getelementptr inbounds %class.btVector3, ptr %retval, i32 0, i32 0
  %25 = getelementptr inbounds { <2 x float>, <2 x float> }, ptr %coerce.dive29, i32 0, i32 0
  %26 = extractvalue { <2 x float>, <2 x float> } %call28, 0
  store <2 x float> %26, ptr %25, align 4
  %27 = getelementptr inbounds { <2 x float>, <2 x float> }, ptr %coerce.dive29, i32 0, i32 1
  %28 = extractvalue { <2 x float>, <2 x float> } %call28, 1
  store <2 x float> %28, ptr %27, align 4
  %coerce.dive30 = getelementptr inbounds %class.btVector3, ptr %retval, i32 0, i32 0
  %29 = load { <2 x float>, <2 x float> }, ptr %coerce.dive30, align 4
  ret { <2 x float>, <2 x float> } %29
}