; Function Attrs: mustprogress nofree norecurse nosync nounwind willreturn memory(read, inaccessiblemem: none) uwtable
define dso_local { <2 x float>, <2 x float> } @_ZNK45btReducedDeformableFaceRigidContactConstraint5getVbEv(ptr nocapture noundef nonnull readonly align 8 dereferenceable(449) %this) unnamed_addr #10 align 2 {
entry:
  %m_contact.i = getelementptr inbounds i8, ptr %this, i64 88
  %0 = load ptr, ptr %m_contact.i, align 8
  %m_face = getelementptr inbounds i8, ptr %this, i64 440
  %1 = load ptr, ptr %m_face, align 8
  %m_n = getelementptr inbounds i8, ptr %1, i64 16
  %2 = load ptr, ptr %m_n, align 8
  %m_v = getelementptr inbounds i8, ptr %2, i64 48
  %m_bary = getelementptr inbounds i8, ptr %0, i64 872
  %3 = load float, ptr %m_v, align 4
  %4 = load float, ptr %m_bary, align 4
  %mul.i = fmul float %3, %4
  %arrayidx3.i = getelementptr inbounds i8, ptr %2, i64 52
  %arrayidx9 = getelementptr inbounds i8, ptr %1, i64 24
  %5 = load ptr, ptr %arrayidx9, align 8
  %m_v10 = getelementptr inbounds i8, ptr %5, i64 48
  %arrayidx13 = getelementptr inbounds i8, ptr %0, i64 876
  %6 = load float, ptr %m_v10, align 4
  %arrayidx3.i4 = getelementptr inbounds i8, ptr %5, i64 52
  %arrayidx21 = getelementptr inbounds i8, ptr %1, i64 32
  %7 = load ptr, ptr %arrayidx21, align 8
  %m_v22 = getelementptr inbounds i8, ptr %7, i64 48
  %8 = load float, ptr %m_v22, align 4
  %9 = load <2 x float>, ptr %arrayidx13, align 4
  %10 = insertelement <2 x float> poison, float %6, i64 0
  %11 = insertelement <2 x float> %10, float %8, i64 1
  %12 = fmul <2 x float> %11, %9
  %13 = extractelement <2 x float> %12, i64 0
  %add.i = fadd float %mul.i, %13
  %arrayidx3.i20 = getelementptr inbounds i8, ptr %7, i64 52
  %14 = extractelement <2 x float> %12, i64 1
  %add.i29 = fadd float %add.i, %14
  %15 = load <2 x float>, ptr %arrayidx3.i, align 4
  %16 = insertelement <2 x float> poison, float %4, i64 0
  %17 = shufflevector <2 x float> %16, <2 x float> poison, <2 x i32> zeroinitializer
  %18 = fmul <2 x float> %17, %15
  %19 = load <2 x float>, ptr %arrayidx3.i4, align 4
  %20 = shufflevector <2 x float> %9, <2 x float> poison, <2 x i32> zeroinitializer
  %21 = fmul <2 x float> %20, %19
  %22 = fadd <2 x float> %18, %21
  %23 = load <2 x float>, ptr %arrayidx3.i20, align 4
  %24 = shufflevector <2 x float> %9, <2 x float> poison, <2 x i32> <i32 1, i32 1>
  %25 = fmul <2 x float> %24, %23
  %26 = fadd <2 x float> %22, %25
  %retval.sroa.0.0.vec.insert.i36 = insertelement <2 x float> poison, float %add.i29, i64 0
  %27 = shufflevector <2 x float> %retval.sroa.0.0.vec.insert.i36, <2 x float> %26, <2 x i32> <i32 0, i32 2>
  %28 = shufflevector <2 x float> <float poison, float 0.000000e+00>, <2 x float> %26, <2 x i32> <i32 3, i32 1>
  %.fca.0.insert.i39 = insertvalue { <2 x float>, <2 x float> } poison, <2 x float> %27, 0
  %.fca.1.insert.i40 = insertvalue { <2 x float>, <2 x float> } %.fca.0.insert.i39, <2 x float> %28, 1
  ret { <2 x float>, <2 x float> } %.fca.1.insert.i40
}